target datalayout = "e-m:e-p270:32:32-p271:32:32-p272:64:64-i64:64-i128:128-f80:128-n8:16:32:64-S128"
target triple = "x86_64-pc-linux-gnu"

%struct.TupleTableSlotOps = type { i64, ptr, ptr, ptr, ptr, ptr, ptr, ptr, ptr, ptr, ptr, ptr, ptr }
%struct.WindowAgg = type { %struct.Plan, i32, i32, ptr, ptr, ptr, i32, ptr, ptr, ptr, i32, ptr, ptr, ptr, ptr, i32, i32, i32, i8, i8, i8 }
%struct.Plan = type { i32, i32, double, double, double, i32, i8, i8, i8, i32, ptr, ptr, ptr, ptr, ptr, ptr, ptr }
%struct.WindowAggState = type { %struct.ScanState, ptr, i32, i32, ptr, ptr, ptr, ptr, ptr, i32, i32, i32, i32, i64, i64, i64, i64, ptr, i64, i64, i32, i32, ptr, ptr, i64, i64, %struct.FmgrInfo, %struct.FmgrInfo, i32, i8, i8, i8, i8, ptr, i64, i64, i64, i64, i64, ptr, ptr, ptr, ptr, i8, i8, i8, i8, i8, i8, i8, ptr, ptr, ptr, ptr, ptr, ptr }
%struct.ScanState = type { %struct.PlanState, ptr, ptr, ptr }
%struct.PlanState = type { i32, ptr, ptr, ptr, ptr, ptr, ptr, ptr, ptr, ptr, ptr, ptr, ptr, ptr, ptr, ptr, ptr, ptr, i8, ptr, ptr, ptr, ptr, ptr, i8, i8, i8, i8, i8, i8, i8, i8 }
%struct.FmgrInfo = type { ptr, i32, i16, i8, i8, i8, ptr, ptr, ptr }
%struct.TupleTableSlot = type { i32, i16, i16, ptr, ptr, ptr, ptr, ptr, %struct.ItemPointerData, i32 }
%struct.ItemPointerData = type { %struct.BlockIdData, i16 }
%struct.BlockIdData = type { i16, i16 }
%struct.ExprContext = type { i32, ptr, ptr, ptr, ptr, ptr, ptr, ptr, ptr, ptr, i64, i8, i64, i8, ptr, ptr, ptr, ptr }
%struct.WindowObjectData = type { i32, ptr, ptr, ptr, i32, i32, i64, i64 }
%struct.ExprState = type { i32, i8, i8, i64, ptr, ptr, ptr, ptr, ptr, i32, i32, ptr, ptr, ptr, ptr, ptr, ptr, ptr }

@CurrentMemoryContext = external global ptr, align 8
@.str.3 = private unnamed_addr constant [16 x i8] c"nodeWindowAgg.c\00", align 1
@.str.5 = private unnamed_addr constant [41 x i8] c"specified position is out of window: %ld\00", align 1
@__func__.WinRowsArePeers = private unnamed_addr constant [16 x i8] c"WinRowsArePeers\00", align 1

; Function Attrs: inlinehint nounwind uwtable
define internal ptr @MemoryContextSwitchTo(ptr noundef %0) #2 {
  %2 = alloca ptr, align 8
  %3 = alloca ptr, align 8
  store ptr %0, ptr %2, align 8
  call void @llvm.lifetime.start.p0(i64 8, ptr %3) #8
  %4 = load ptr, ptr @CurrentMemoryContext, align 8
  store ptr %4, ptr %3, align 8
  %5 = load ptr, ptr %2, align 8
  store ptr %5, ptr @CurrentMemoryContext, align 8
  %6 = load ptr, ptr %3, align 8
  call void @llvm.lifetime.end.p0(i64 8, ptr %3) #8
  ret ptr %6
}

; Function Attrs: inlinehint nounwind uwtable
define internal zeroext i1 @DatumGetBool(i64 noundef %0) #2 {
  %2 = alloca i64, align 8
  store i64 %0, ptr %2, align 8
  %3 = load i64, ptr %2, align 8
  %4 = icmp ne i64 %3, 0
  ret i1 %4
}

; Function Attrs: inlinehint nounwind uwtable
define internal i64 @ExecEvalExprSwitchContext(ptr noundef %0, ptr noundef %1, ptr noundef %2) #2 {
  %4 = alloca ptr, align 8
  %5 = alloca ptr, align 8
  %6 = alloca ptr, align 8
  %7 = alloca i64, align 8
  %8 = alloca ptr, align 8
  store ptr %0, ptr %4, align 8
  store ptr %1, ptr %5, align 8
  store ptr %2, ptr %6, align 8
  call void @llvm.lifetime.start.p0(i64 8, ptr %7) #8
  call void @llvm.lifetime.start.p0(i64 8, ptr %8) #8
  %9 = load ptr, ptr %5, align 8
  %10 = getelementptr inbounds nuw %struct.ExprContext, ptr %9, i32 0, i32 5
  %11 = load ptr, ptr %10, align 8
  %12 = call ptr @MemoryContextSwitchTo(ptr noundef %11)
  store ptr %12, ptr %8, align 8
  %13 = load ptr, ptr %4, align 8
  %14 = getelementptr inbounds nuw %struct.ExprState, ptr %13, i32 0, i32 6
  %15 = load ptr, ptr %14, align 8
  %16 = load ptr, ptr %4, align 8
  %17 = load ptr, ptr %5, align 8
  %18 = load ptr, ptr %6, align 8
  %19 = call i64 %15(ptr noundef %16, ptr noundef %17, ptr noundef %18)
  store i64 %19, ptr %7, align 8
  %20 = load ptr, ptr %8, align 8
  %21 = call ptr @MemoryContextSwitchTo(ptr noundef %20)
  %22 = load i64, ptr %7, align 8
  call void @llvm.lifetime.end.p0(i64 8, ptr %8) #8
  call void @llvm.lifetime.end.p0(i64 8, ptr %7) #8
  ret i64 %22
}

; Function Attrs: inlinehint nounwind uwtable
define internal zeroext i1 @ExecQual(ptr noundef %0, ptr noundef %1) #2 {
  %3 = alloca i1, align 1
  %4 = alloca ptr, align 8
  %5 = alloca ptr, align 8
  %6 = alloca i64, align 8
  %7 = alloca i8, align 1
  %8 = alloca i32, align 4
  store ptr %0, ptr %4, align 8
  store ptr %1, ptr %5, align 8
  call void @llvm.lifetime.start.p0(i64 8, ptr %6) #8
  call void @llvm.lifetime.start.p0(i64 1, ptr %7) #8
  %9 = load ptr, ptr %4, align 8
  %10 = icmp eq ptr %9, null
  br i1 %10, label %11, label %12

11:                                               ; preds = %2
  store i1 true, ptr %3, align 1
  store i32 1, ptr %8, align 4
  br label %18

12:                                               ; preds = %2
  %13 = load ptr, ptr %4, align 8
  %14 = load ptr, ptr %5, align 8
  %15 = call i64 @ExecEvalExprSwitchContext(ptr noundef %13, ptr noundef %14, ptr noundef %7)
  store i64 %15, ptr %6, align 8
  %16 = load i64, ptr %6, align 8
  %17 = call zeroext i1 @DatumGetBool(i64 noundef %16)
  store i1 %17, ptr %3, align 1
  store i32 1, ptr %8, align 4
  br label %18

18:                                               ; preds = %12, %11
  call void @llvm.lifetime.end.p0(i64 1, ptr %7) #8
  call void @llvm.lifetime.end.p0(i64 8, ptr %6) #8
  %19 = load i1, ptr %3, align 1
  ret i1 %19
}

; Function Attrs: inlinehint nounwind uwtable
define internal zeroext i1 @ExecQualAndReset(ptr noundef %0, ptr noundef %1) #2 {
  %3 = alloca ptr, align 8
  %4 = alloca ptr, align 8
  %5 = alloca i8, align 1
  store ptr %0, ptr %3, align 8
  store ptr %1, ptr %4, align 8
  call void @llvm.lifetime.start.p0(i64 1, ptr %5) #8
  %6 = load ptr, ptr %3, align 8
  %7 = load ptr, ptr %4, align 8
  %8 = call zeroext i1 @ExecQual(ptr noundef %6, ptr noundef %7)
  %9 = zext i1 %8 to i8
  store i8 %9, ptr %5, align 1
  %10 = load ptr, ptr %4, align 8
  %11 = getelementptr inbounds nuw %struct.ExprContext, ptr %10, i32 0, i32 5
  %12 = load ptr, ptr %11, align 8
  call void @MemoryContextReset(ptr noundef %12)
  %13 = load i8, ptr %5, align 1, !range !4, !noundef !5
  %14 = trunc i8 %13 to i1
  call void @llvm.lifetime.end.p0(i64 1, ptr %5) #8
  ret i1 %14
}

; Function Attrs: inlinehint nounwind uwtable
define internal ptr @ExecClearTuple(ptr noundef %0) #2 {
  %2 = alloca ptr, align 8
  store ptr %0, ptr %2, align 8
  %3 = load ptr, ptr %2, align 8
  %4 = getelementptr inbounds nuw %struct.TupleTableSlot, ptr %3, i32 0, i32 3
  %5 = load ptr, ptr %4, align 8
  %6 = getelementptr inbounds nuw %struct.TupleTableSlotOps, ptr %5, i32 0, i32 3
  %7 = load ptr, ptr %6, align 8
  %8 = load ptr, ptr %2, align 8
  call void %7(ptr noundef %8)
  %9 = load ptr, ptr %2, align 8
  ret ptr %9
}

; Function Attrs: nounwind uwtable
define internal zeroext i1 @are_peers(ptr noundef %0, ptr noundef %1, ptr noundef %2) #0 {
  %4 = alloca i1, align 1
  %5 = alloca ptr, align 8
  %6 = alloca ptr, align 8
  %7 = alloca ptr, align 8
  %8 = alloca ptr, align 8
  %9 = alloca ptr, align 8
  %10 = alloca i32, align 4
  store ptr %0, ptr %5, align 8
  store ptr %1, ptr %6, align 8
  store ptr %2, ptr %7, align 8
  call void @llvm.lifetime.start.p0(i64 8, ptr %8) #8
  %11 = load ptr, ptr %5, align 8
  %12 = getelementptr inbounds nuw %struct.WindowAggState, ptr %11, i32 0, i32 0
  %13 = getelementptr inbounds nuw %struct.ScanState, ptr %12, i32 0, i32 0
  %14 = getelementptr inbounds nuw %struct.PlanState, ptr %13, i32 0, i32 1
  %15 = load ptr, ptr %14, align 8
  store ptr %15, ptr %8, align 8
  call void @llvm.lifetime.start.p0(i64 8, ptr %9) #8
  %16 = load ptr, ptr %5, align 8
  %17 = getelementptr inbounds nuw %struct.WindowAggState, ptr %16, i32 0, i32 42
  %18 = load ptr, ptr %17, align 8
  store ptr %18, ptr %9, align 8
  %19 = load ptr, ptr %8, align 8
  %20 = getelementptr inbounds nuw %struct.WindowAgg, ptr %19, i32 0, i32 6
  %21 = load i32, ptr %20, align 8
  %22 = icmp eq i32 %21, 0
  br i1 %22, label %23, label %24

23:                                               ; preds = %3
  store i1 true, ptr %4, align 1
  store i32 1, ptr %10, align 4
  br label %36

24:                                               ; preds = %3
  %25 = load ptr, ptr %6, align 8
  %26 = load ptr, ptr %9, align 8
  %27 = getelementptr inbounds nuw %struct.ExprContext, ptr %26, i32 0, i32 3
  store ptr %25, ptr %27, align 8
  %28 = load ptr, ptr %7, align 8
  %29 = load ptr, ptr %9, align 8
  %30 = getelementptr inbounds nuw %struct.ExprContext, ptr %29, i32 0, i32 2
  store ptr %28, ptr %30, align 8
  %31 = load ptr, ptr %5, align 8
  %32 = getelementptr inbounds nuw %struct.WindowAggState, ptr %31, i32 0, i32 7
  %33 = load ptr, ptr %32, align 8
  %34 = load ptr, ptr %9, align 8
  %35 = call zeroext i1 @ExecQualAndReset(ptr noundef %33, ptr noundef %34)
  store i1 %35, ptr %4, align 1
  store i32 1, ptr %10, align 4
  br label %36

36:                                               ; preds = %24, %23
  call void @llvm.lifetime.end.p0(i64 8, ptr %9) #8
  call void @llvm.lifetime.end.p0(i64 8, ptr %8) #8
  %37 = load i1, ptr %4, align 1
  ret i1 %37
}

; Function Attrs: nounwind uwtable
define dso_local zeroext i1 @WinRowsArePeers(ptr noundef %0, i64 noundef %1, i64 noundef %2) #0 {
  %4 = alloca i1, align 1
  %5 = alloca ptr, align 8
  %6 = alloca i64, align 8
  %7 = alloca i64, align 8
  %8 = alloca ptr, align 8
  %9 = alloca ptr, align 8
  %10 = alloca ptr, align 8
  %11 = alloca ptr, align 8
  %12 = alloca i8, align 1
  %13 = alloca i32, align 4
  store ptr %0, ptr %5, align 8
  store i64 %1, ptr %6, align 8
  store i64 %2, ptr %7, align 8
  call void @llvm.lifetime.start.p0(i64 8, ptr %8) #8
  call void @llvm.lifetime.start.p0(i64 8, ptr %9) #8
  call void @llvm.lifetime.start.p0(i64 8, ptr %10) #8
  call void @llvm.lifetime.start.p0(i64 8, ptr %11) #8
  call void @llvm.lifetime.start.p0(i64 1, ptr %12) #8
  %14 = load ptr, ptr %5, align 8
  %15 = getelementptr inbounds nuw %struct.WindowObjectData, ptr %14, i32 0, i32 1
  %16 = load ptr, ptr %15, align 8
  store ptr %16, ptr %8, align 8
  %17 = load ptr, ptr %8, align 8
  %18 = getelementptr inbounds nuw %struct.WindowAggState, ptr %17, i32 0, i32 0
  %19 = getelementptr inbounds nuw %struct.ScanState, ptr %18, i32 0, i32 0
  %20 = getelementptr inbounds nuw %struct.PlanState, ptr %19, i32 0, i32 1
  %21 = load ptr, ptr %20, align 8
  store ptr %21, ptr %9, align 8
  %22 = load ptr, ptr %9, align 8
  %23 = getelementptr inbounds nuw %struct.WindowAgg, ptr %22, i32 0, i32 6
  %24 = load i32, ptr %23, align 8
  %25 = icmp eq i32 %24, 0
  br i1 %25, label %26, label %27

26:                                               ; preds = %3
  store i1 true, ptr %4, align 1
  store i32 1, ptr %13, align 4
  br label %79

27:                                               ; preds = %3
  %28 = load ptr, ptr %8, align 8
  %29 = getelementptr inbounds nuw %struct.WindowAggState, ptr %28, i32 0, i32 54
  %30 = load ptr, ptr %29, align 8
  store ptr %30, ptr %10, align 8
  %31 = load ptr, ptr %8, align 8
  %32 = getelementptr inbounds nuw %struct.WindowAggState, ptr %31, i32 0, i32 55
  %33 = load ptr, ptr %32, align 8
  store ptr %33, ptr %11, align 8
  %34 = load ptr, ptr %5, align 8
  %35 = load i64, ptr %6, align 8
  %36 = load ptr, ptr %10, align 8
  %37 = call zeroext i1 @window_gettupleslot(ptr noundef %34, i64 noundef %35, ptr noundef %36)
  br i1 %37, label %50, label %38

38:                                               ; preds = %27
  br label %39

39:                                               ; preds = %38
  br i1 true, label %40, label %42

40:                                               ; preds = %39
  %41 = call zeroext i1 @errstart_cold(i32 noundef 21, ptr noundef null) #9
  br i1 %41, label %44, label %47

42:                                               ; preds = %39
  %43 = call zeroext i1 @errstart(i32 noundef 21, ptr noundef null)
  br i1 %43, label %44, label %47

44:                                               ; preds = %42, %40
  %45 = load i64, ptr %6, align 8
  %46 = call i32 (ptr, ...) @errmsg_internal(ptr noundef @.str.5, i64 noundef %45)
  call void @errfinish(ptr noundef @.str.3, i32 noundef 3344, ptr noundef @__func__.WinRowsArePeers)
  br label %47

47:                                               ; preds = %44, %42, %40
  unreachable

48:                                               ; No predecessors!
  br label %49

49:                                               ; preds = %48
  br label %50

50:                                               ; preds = %49, %27
  %51 = load ptr, ptr %5, align 8
  %52 = load i64, ptr %7, align 8
  %53 = load ptr, ptr %11, align 8
  %54 = call zeroext i1 @window_gettupleslot(ptr noundef %51, i64 noundef %52, ptr noundef %53)
  br i1 %54, label %67, label %55

55:                                               ; preds = %50
  br label %56

56:                                               ; preds = %55
  br i1 true, label %57, label %59

57:                                               ; preds = %56
  %58 = call zeroext i1 @errstart_cold(i32 noundef 21, ptr noundef null) #9
  br i1 %58, label %61, label %64

59:                                               ; preds = %56
  %60 = call zeroext i1 @errstart(i32 noundef 21, ptr noundef null)
  br i1 %60, label %61, label %64

61:                                               ; preds = %59, %57
  %62 = load i64, ptr %7, align 8
  %63 = call i32 (ptr, ...) @errmsg_internal(ptr noundef @.str.5, i64 noundef %62)
  call void @errfinish(ptr noundef @.str.3, i32 noundef 3347, ptr noundef @__func__.WinRowsArePeers)
  br label %64

64:                                               ; preds = %61, %59, %57
  unreachable

65:                                               ; No predecessors!
  br label %66

66:                                               ; preds = %65
  br label %67

67:                                               ; preds = %66, %50
  %68 = load ptr, ptr %8, align 8
  %69 = load ptr, ptr %10, align 8
  %70 = load ptr, ptr %11, align 8
  %71 = call zeroext i1 @are_peers(ptr noundef %68, ptr noundef %69, ptr noundef %70)
  %72 = zext i1 %71 to i8
  store i8 %72, ptr %12, align 1
  %73 = load ptr, ptr %10, align 8
  %74 = call ptr @ExecClearTuple(ptr noundef %73)
  %75 = load ptr, ptr %11, align 8
  %76 = call ptr @ExecClearTuple(ptr noundef %75)
  %77 = load i8, ptr %12, align 1, !range !4, !noundef !5
  %78 = trunc i8 %77 to i1
  store i1 %78, ptr %4, align 1
  store i32 1, ptr %13, align 4
  br label %79

79:                                               ; preds = %67, %26
  call void @llvm.lifetime.end.p0(i64 1, ptr %12) #8
  call void @llvm.lifetime.end.p0(i64 8, ptr %11) #8
  call void @llvm.lifetime.end.p0(i64 8, ptr %10) #8
  call void @llvm.lifetime.end.p0(i64 8, ptr %9) #8
  call void @llvm.lifetime.end.p0(i64 8, ptr %8) #8
  %80 = load i1, ptr %4, align 1
  ret i1 %80
}