; Function Attrs: nounwind uwtable
define dso_local zeroext i1 @WinRowsArePeers(ptr noundef captures(none) %0, i64 noundef %1, i64 noundef %2) local_unnamed_addr #0 {
  %4 = alloca i8, align 1
  %5 = getelementptr inbounds nuw i8, ptr %0, i64 8
  %6 = load ptr, ptr %5, align 8
  %7 = getelementptr inbounds nuw i8, ptr %6, i64 8
  %8 = load ptr, ptr %7, align 8
  %9 = getelementptr inbounds nuw i8, ptr %8, i64 136
  %10 = load i32, ptr %9, align 8
  %11 = icmp eq i32 %10, 0
  br i1 %11, label %57, label %12

12:                                               ; preds = %3
  %13 = getelementptr inbounds nuw i8, ptr %6, i64 616
  %14 = load ptr, ptr %13, align 8
  %15 = getelementptr inbounds nuw i8, ptr %6, i64 624
  %16 = load ptr, ptr %15, align 8
  %17 = tail call fastcc zeroext i1 @window_gettupleslot(ptr noundef nonnull %0, i64 noundef %1, ptr noundef %14)
  br i1 %17, label %21, label %18

18:                                               ; preds = %12
  %19 = tail call zeroext i1 @errstart_cold(i32 noundef 21, ptr noundef null) #10
  tail call void @llvm.assume(i1 %19)
  %20 = tail call i32 (ptr, ...) @errmsg_internal(ptr noundef nonnull @.str.5, i64 noundef %1) #9
  tail call void @errfinish(ptr noundef nonnull @.str.3, i32 noundef 3344, ptr noundef nonnull @__func__.WinRowsArePeers) #9
  unreachable

21:                                               ; preds = %12
  %22 = tail call fastcc zeroext i1 @window_gettupleslot(ptr noundef nonnull %0, i64 noundef %2, ptr noundef %16)
  br i1 %22, label %26, label %23

23:                                               ; preds = %21
  %24 = tail call zeroext i1 @errstart_cold(i32 noundef 21, ptr noundef null) #10
  tail call void @llvm.assume(i1 %24)
  %25 = tail call i32 (ptr, ...) @errmsg_internal(ptr noundef nonnull @.str.5, i64 noundef %2) #9
  tail call void @errfinish(ptr noundef nonnull @.str.3, i32 noundef 3347, ptr noundef nonnull @__func__.WinRowsArePeers) #9
  unreachable

26:                                               ; preds = %21
  %27 = load ptr, ptr %7, align 8
  %28 = getelementptr inbounds nuw i8, ptr %27, i64 136
  %29 = load i32, ptr %28, align 8
  %30 = icmp eq i32 %29, 0
  br i1 %30, label %are_peers.exit, label %31

31:                                               ; preds = %26
  %32 = getelementptr inbounds nuw i8, ptr %6, i64 568
  %33 = load ptr, ptr %32, align 8
  %34 = getelementptr inbounds nuw i8, ptr %33, i64 24
  store ptr %14, ptr %34, align 8
  %35 = getelementptr inbounds nuw i8, ptr %33, i64 16
  store ptr %16, ptr %35, align 8
  %36 = getelementptr inbounds nuw i8, ptr %6, i64 264
  %37 = load ptr, ptr %36, align 8
  call void @llvm.lifetime.start.p0(i64 1, ptr nonnull %4) #9
  %38 = icmp eq ptr %37, null
  br i1 %38, label %ExecQualAndReset.exit.i, label %39

39:                                               ; preds = %31
  %40 = getelementptr inbounds nuw i8, ptr %33, i64 40
  %41 = load ptr, ptr %40, align 8
  %42 = load ptr, ptr @CurrentMemoryContext, align 8
  store ptr %41, ptr @CurrentMemoryContext, align 8
  %43 = getelementptr inbounds nuw i8, ptr %37, i64 32
  %44 = load ptr, ptr %43, align 8
  %45 = call i64 %44(ptr noundef nonnull %37, ptr noundef nonnull %33, ptr noundef nonnull %4) #9
  store ptr %42, ptr @CurrentMemoryContext, align 8
  %46 = icmp ne i64 %45, 0
  br label %ExecQualAndReset.exit.i

ExecQualAndReset.exit.i:                          ; preds = %39, %31
  %.0.i.i.i = phi i1 [ %46, %39 ], [ true, %31 ]
  call void @llvm.lifetime.end.p0(i64 1, ptr nonnull %4) #9
  %47 = getelementptr inbounds nuw i8, ptr %33, i64 40
  %48 = load ptr, ptr %47, align 8
  call void @MemoryContextReset(ptr noundef %48) #9
  br label %are_peers.exit

are_peers.exit:                                   ; preds = %26, %ExecQualAndReset.exit.i
  %.0.i = phi i1 [ %.0.i.i.i, %ExecQualAndReset.exit.i ], [ true, %26 ]
  %49 = getelementptr inbounds nuw i8, ptr %14, i64 8
  %50 = load ptr, ptr %49, align 8
  %51 = getelementptr inbounds nuw i8, ptr %50, i64 24
  %52 = load ptr, ptr %51, align 8
  call void %52(ptr noundef %14) #9
  %53 = getelementptr inbounds nuw i8, ptr %16, i64 8
  %54 = load ptr, ptr %53, align 8
  %55 = getelementptr inbounds nuw i8, ptr %54, i64 24
  %56 = load ptr, ptr %55, align 8
  call void %56(ptr noundef %16) #9
  br label %57

57:                                               ; preds = %3, %are_peers.exit
  %.0 = phi i1 [ %.0.i, %are_peers.exit ], [ true, %3 ]
  ret i1 %.0
}